
matmul:     file format elf64-x86-64


Disassembly of section .init:

0000000000001000 <_init>:
    1000:	f3 0f 1e fa          	endbr64 
    1004:	48 83 ec 08          	sub    $0x8,%rsp
    1008:	48 8b 05 d9 2f 00 00 	mov    0x2fd9(%rip),%rax        # 3fe8 <__gmon_start__@Base>
    100f:	48 85 c0             	test   %rax,%rax
    1012:	74 02                	je     1016 <_init+0x16>
    1014:	ff d0                	call   *%rax
    1016:	48 83 c4 08          	add    $0x8,%rsp
    101a:	c3                   	ret    

Disassembly of section .plt:

0000000000001020 <.plt>:
    1020:	ff 35 62 2f 00 00    	push   0x2f62(%rip)        # 3f88 <_GLOBAL_OFFSET_TABLE_+0x8>
    1026:	f2 ff 25 63 2f 00 00 	bnd jmp *0x2f63(%rip)        # 3f90 <_GLOBAL_OFFSET_TABLE_+0x10>
    102d:	0f 1f 00             	nopl   (%rax)
    1030:	f3 0f 1e fa          	endbr64 
    1034:	68 00 00 00 00       	push   $0x0
    1039:	f2 e9 e1 ff ff ff    	bnd jmp 1020 <_init+0x20>
    103f:	90                   	nop
    1040:	f3 0f 1e fa          	endbr64 
    1044:	68 01 00 00 00       	push   $0x1
    1049:	f2 e9 d1 ff ff ff    	bnd jmp 1020 <_init+0x20>
    104f:	90                   	nop
    1050:	f3 0f 1e fa          	endbr64 
    1054:	68 02 00 00 00       	push   $0x2
    1059:	f2 e9 c1 ff ff ff    	bnd jmp 1020 <_init+0x20>
    105f:	90                   	nop
    1060:	f3 0f 1e fa          	endbr64 
    1064:	68 03 00 00 00       	push   $0x3
    1069:	f2 e9 b1 ff ff ff    	bnd jmp 1020 <_init+0x20>
    106f:	90                   	nop
    1070:	f3 0f 1e fa          	endbr64 
    1074:	68 04 00 00 00       	push   $0x4
    1079:	f2 e9 a1 ff ff ff    	bnd jmp 1020 <_init+0x20>
    107f:	90                   	nop
    1080:	f3 0f 1e fa          	endbr64 
    1084:	68 05 00 00 00       	push   $0x5
    1089:	f2 e9 91 ff ff ff    	bnd jmp 1020 <_init+0x20>
    108f:	90                   	nop

Disassembly of section .plt.got:

0000000000001090 <__cxa_finalize@plt>:
    1090:	f3 0f 1e fa          	endbr64 
    1094:	f2 ff 25 2d 2f 00 00 	bnd jmp *0x2f2d(%rip)        # 3fc8 <__cxa_finalize@GLIBC_2.2.5>
    109b:	0f 1f 44 00 00       	nopl   0x0(%rax,%rax,1)

Disassembly of section .plt.sec:

00000000000010a0 <__cxa_atexit@plt>:
    10a0:	f3 0f 1e fa          	endbr64 
    10a4:	f2 ff 25 ed 2e 00 00 	bnd jmp *0x2eed(%rip)        # 3f98 <__cxa_atexit@GLIBC_2.2.5>
    10ab:	0f 1f 44 00 00       	nopl   0x0(%rax,%rax,1)

00000000000010b0 <_ZNSolsEPFRSoS_E@plt>:
    10b0:	f3 0f 1e fa          	endbr64 
    10b4:	f2 ff 25 e5 2e 00 00 	bnd jmp *0x2ee5(%rip)        # 3fa0 <_ZNSolsEPFRSoS_E@GLIBCXX_3.4>
    10bb:	0f 1f 44 00 00       	nopl   0x0(%rax,%rax,1)

00000000000010c0 <__stack_chk_fail@plt>:
    10c0:	f3 0f 1e fa          	endbr64 
    10c4:	f2 ff 25 dd 2e 00 00 	bnd jmp *0x2edd(%rip)        # 3fa8 <__stack_chk_fail@GLIBC_2.4>
    10cb:	0f 1f 44 00 00       	nopl   0x0(%rax,%rax,1)

00000000000010d0 <_ZStlsISt11char_traitsIcEERSt13basic_ostreamIcT_ES5_c@plt>:
    10d0:	f3 0f 1e fa          	endbr64 
    10d4:	f2 ff 25 d5 2e 00 00 	bnd jmp *0x2ed5(%rip)        # 3fb0 <_ZStlsISt11char_traitsIcEERSt13basic_ostreamIcT_ES5_c@GLIBCXX_3.4>
    10db:	0f 1f 44 00 00       	nopl   0x0(%rax,%rax,1)

00000000000010e0 <_ZNSt8ios_base4InitC1Ev@plt>:
    10e0:	f3 0f 1e fa          	endbr64 
    10e4:	f2 ff 25 cd 2e 00 00 	bnd jmp *0x2ecd(%rip)        # 3fb8 <_ZNSt8ios_base4InitC1Ev@GLIBCXX_3.4>
    10eb:	0f 1f 44 00 00       	nopl   0x0(%rax,%rax,1)

00000000000010f0 <_ZNSolsEi@plt>:
    10f0:	f3 0f 1e fa          	endbr64 
    10f4:	f2 ff 25 c5 2e 00 00 	bnd jmp *0x2ec5(%rip)        # 3fc0 <_ZNSolsEi@GLIBCXX_3.4>
    10fb:	0f 1f 44 00 00       	nopl   0x0(%rax,%rax,1)

Disassembly of section .text:

0000000000001100 <_start>:
    1100:	f3 0f 1e fa          	endbr64 
    1104:	31 ed                	xor    %ebp,%ebp
    1106:	49 89 d1             	mov    %rdx,%r9
    1109:	5e                   	pop    %rsi
    110a:	48 89 e2             	mov    %rsp,%rdx
    110d:	48 83 e4 f0          	and    $0xfffffffffffffff0,%rsp
    1111:	50                   	push   %rax
    1112:	54                   	push   %rsp
    1113:	45 31 c0             	xor    %r8d,%r8d
    1116:	31 c9                	xor    %ecx,%ecx
    1118:	48 8d 3d 9e 01 00 00 	lea    0x19e(%rip),%rdi        # 12bd <main>
    111f:	ff 15 b3 2e 00 00    	call   *0x2eb3(%rip)        # 3fd8 <__libc_start_main@GLIBC_2.34>
    1125:	f4                   	hlt    
    1126:	66 2e 0f 1f 84 00 00 	cs nopw 0x0(%rax,%rax,1)
    112d:	00 00 00 

0000000000001130 <deregister_tm_clones>:
    1130:	48 8d 3d d9 2e 00 00 	lea    0x2ed9(%rip),%rdi        # 4010 <__TMC_END__>
    1137:	48 8d 05 d2 2e 00 00 	lea    0x2ed2(%rip),%rax        # 4010 <__TMC_END__>
    113e:	48 39 f8             	cmp    %rdi,%rax
    1141:	74 15                	je     1158 <deregister_tm_clones+0x28>
    1143:	48 8b 05 96 2e 00 00 	mov    0x2e96(%rip),%rax        # 3fe0 <_ITM_deregisterTMCloneTable@Base>
    114a:	48 85 c0             	test   %rax,%rax
    114d:	74 09                	je     1158 <deregister_tm_clones+0x28>
    114f:	ff e0                	jmp    *%rax
    1151:	0f 1f 80 00 00 00 00 	nopl   0x0(%rax)
    1158:	c3                   	ret    
    1159:	0f 1f 80 00 00 00 00 	nopl   0x0(%rax)

0000000000001160 <register_tm_clones>:
    1160:	48 8d 3d a9 2e 00 00 	lea    0x2ea9(%rip),%rdi        # 4010 <__TMC_END__>
    1167:	48 8d 35 a2 2e 00 00 	lea    0x2ea2(%rip),%rsi        # 4010 <__TMC_END__>
    116e:	48 29 fe             	sub    %rdi,%rsi
    1171:	48 89 f0             	mov    %rsi,%rax
    1174:	48 c1 ee 3f          	shr    $0x3f,%rsi
    1178:	48 c1 f8 03          	sar    $0x3,%rax
    117c:	48 01 c6             	add    %rax,%rsi
    117f:	48 d1 fe             	sar    %rsi
    1182:	74 14                	je     1198 <register_tm_clones+0x38>
    1184:	48 8b 05 65 2e 00 00 	mov    0x2e65(%rip),%rax        # 3ff0 <_ITM_registerTMCloneTable@Base>
    118b:	48 85 c0             	test   %rax,%rax
    118e:	74 08                	je     1198 <register_tm_clones+0x38>
    1190:	ff e0                	jmp    *%rax
    1192:	66 0f 1f 44 00 00    	nopw   0x0(%rax,%rax,1)
    1198:	c3                   	ret    
    1199:	0f 1f 80 00 00 00 00 	nopl   0x0(%rax)

00000000000011a0 <__do_global_dtors_aux>:
    11a0:	f3 0f 1e fa          	endbr64 
    11a4:	80 3d a5 2f 00 00 00 	cmpb   $0x0,0x2fa5(%rip)        # 4150 <completed.0>
    11ab:	75 2b                	jne    11d8 <__do_global_dtors_aux+0x38>
    11ad:	55                   	push   %rbp
    11ae:	48 83 3d 12 2e 00 00 	cmpq   $0x0,0x2e12(%rip)        # 3fc8 <__cxa_finalize@GLIBC_2.2.5>
    11b5:	00 
    11b6:	48 89 e5             	mov    %rsp,%rbp
    11b9:	74 0c                	je     11c7 <__do_global_dtors_aux+0x27>
    11bb:	48 8b 3d 46 2e 00 00 	mov    0x2e46(%rip),%rdi        # 4008 <__dso_handle>
    11c2:	e8 c9 fe ff ff       	call   1090 <__cxa_finalize@plt>
    11c7:	e8 64 ff ff ff       	call   1130 <deregister_tm_clones>
    11cc:	c6 05 7d 2f 00 00 01 	movb   $0x1,0x2f7d(%rip)        # 4150 <completed.0>
    11d3:	5d                   	pop    %rbp
    11d4:	c3                   	ret    
    11d5:	0f 1f 00             	nopl   (%rax)
    11d8:	c3                   	ret    
    11d9:	0f 1f 80 00 00 00 00 	nopl   0x0(%rax)

00000000000011e0 <frame_dummy>:
    11e0:	f3 0f 1e fa          	endbr64 
    11e4:	e9 77 ff ff ff       	jmp    1160 <register_tm_clones>

00000000000011e9 <_Z6matmulPA4_iS0_S0_i>:
    11e9:	f3 0f 1e fa          	endbr64 
    11ed:	55                   	push   %rbp
    11ee:	48 89 e5             	mov    %rsp,%rbp
    11f1:	48 89 7d e8          	mov    %rdi,-0x18(%rbp)
    11f5:	48 89 75 e0          	mov    %rsi,-0x20(%rbp)
    11f9:	48 89 55 d8          	mov    %rdx,-0x28(%rbp)
    11fd:	89 4d d4             	mov    %ecx,-0x2c(%rbp)
    1200:	c7 45 f0 00 00 00 00 	movl   $0x0,-0x10(%rbp)
    1207:	e9 a1 00 00 00       	jmp    12ad <_Z6matmulPA4_iS0_S0_i+0xc4>
    120c:	c7 45 f4 00 00 00 00 	movl   $0x0,-0xc(%rbp)
    1213:	e9 85 00 00 00       	jmp    129d <_Z6matmulPA4_iS0_S0_i+0xb4>
    1218:	c7 45 f8 00 00 00 00 	movl   $0x0,-0x8(%rbp)
    121f:	c7 45 fc 00 00 00 00 	movl   $0x0,-0x4(%rbp)
    1226:	eb 4a                	jmp    1272 <_Z6matmulPA4_iS0_S0_i+0x89>
    1228:	8b 45 f0             	mov    -0x10(%rbp),%eax
    122b:	48 98                	cltq   
    122d:	48 c1 e0 04          	shl    $0x4,%rax
    1231:	48 89 c2             	mov    %rax,%rdx
    1234:	48 8b 45 e8          	mov    -0x18(%rbp),%rax
    1238:	48 01 c2             	add    %rax,%rdx
    123b:	8b 4d f4             	mov    -0xc(%rbp),%ecx
    123e:	8b 45 fc             	mov    -0x4(%rbp),%eax
    1241:	01 c8                	add    %ecx,%eax
    1243:	48 98                	cltq   
    1245:	8b 14 82             	mov    (%rdx,%rax,4),%edx
    1248:	8b 4d f0             	mov    -0x10(%rbp),%ecx
    124b:	8b 45 fc             	mov    -0x4(%rbp),%eax
    124e:	01 c8                	add    %ecx,%eax
    1250:	48 98                	cltq   
    1252:	48 c1 e0 04          	shl    $0x4,%rax
    1256:	48 89 c1             	mov    %rax,%rcx
    1259:	48 8b 45 e0          	mov    -0x20(%rbp),%rax
    125d:	48 01 c1             	add    %rax,%rcx
    1260:	8b 45 f4             	mov    -0xc(%rbp),%eax
    1263:	48 98                	cltq   
    1265:	8b 04 81             	mov    (%rcx,%rax,4),%eax
    1268:	0f af c2             	imul   %edx,%eax
    126b:	01 45 f8             	add    %eax,-0x8(%rbp)
    126e:	83 45 fc 01          	addl   $0x1,-0x4(%rbp)
    1272:	8b 45 fc             	mov    -0x4(%rbp),%eax
    1275:	3b 45 d4             	cmp    -0x2c(%rbp),%eax
    1278:	7c ae                	jl     1228 <_Z6matmulPA4_iS0_S0_i+0x3f>
    127a:	8b 45 f0             	mov    -0x10(%rbp),%eax
    127d:	48 98                	cltq   
    127f:	48 c1 e0 04          	shl    $0x4,%rax
    1283:	48 89 c2             	mov    %rax,%rdx
    1286:	48 8b 45 d8          	mov    -0x28(%rbp),%rax
    128a:	48 8d 0c 02          	lea    (%rdx,%rax,1),%rcx
    128e:	8b 45 f4             	mov    -0xc(%rbp),%eax
    1291:	48 98                	cltq   
    1293:	8b 55 f8             	mov    -0x8(%rbp),%edx
    1296:	89 14 81             	mov    %edx,(%rcx,%rax,4)
    1299:	83 45 f4 01          	addl   $0x1,-0xc(%rbp)
    129d:	8b 45 f4             	mov    -0xc(%rbp),%eax
    12a0:	3b 45 d4             	cmp    -0x2c(%rbp),%eax
    12a3:	0f 8c 6f ff ff ff    	jl     1218 <_Z6matmulPA4_iS0_S0_i+0x2f>
    12a9:	83 45 f0 01          	addl   $0x1,-0x10(%rbp)
    12ad:	8b 45 f0             	mov    -0x10(%rbp),%eax
    12b0:	3b 45 d4             	cmp    -0x2c(%rbp),%eax
    12b3:	0f 8c 53 ff ff ff    	jl     120c <_Z6matmulPA4_iS0_S0_i+0x23>
    12b9:	90                   	nop
    12ba:	90                   	nop
    12bb:	5d                   	pop    %rbp
    12bc:	c3                   	ret    

00000000000012bd <main>:
    12bd:	f3 0f 1e fa          	endbr64 
    12c1:	55                   	push   %rbp
    12c2:	48 89 e5             	mov    %rsp,%rbp
    12c5:	48 81 ec e0 00 00 00 	sub    $0xe0,%rsp
    12cc:	64 48 8b 04 25 28 00 	mov    %fs:0x28,%rax
    12d3:	00 00 
    12d5:	48 89 45 f8          	mov    %rax,-0x8(%rbp)
    12d9:	31 c0                	xor    %eax,%eax
    12db:	c7 85 30 ff ff ff 01 	movl   $0x1,-0xd0(%rbp)
    12e2:	00 00 00 
    12e5:	c7 85 34 ff ff ff 01 	movl   $0x1,-0xcc(%rbp)
    12ec:	00 00 00 
    12ef:	c7 85 38 ff ff ff 01 	movl   $0x1,-0xc8(%rbp)
    12f6:	00 00 00 
    12f9:	c7 85 3c ff ff ff 01 	movl   $0x1,-0xc4(%rbp)
    1300:	00 00 00 
    1303:	c7 85 40 ff ff ff 01 	movl   $0x1,-0xc0(%rbp)
    130a:	00 00 00 
    130d:	c7 85 44 ff ff ff 01 	movl   $0x1,-0xbc(%rbp)
    1314:	00 00 00 
    1317:	c7 85 48 ff ff ff 01 	movl   $0x1,-0xb8(%rbp)
    131e:	00 00 00 
    1321:	c7 85 4c ff ff ff 01 	movl   $0x1,-0xb4(%rbp)
    1328:	00 00 00 
    132b:	c7 85 50 ff ff ff 01 	movl   $0x1,-0xb0(%rbp)
    1332:	00 00 00 
    1335:	c7 85 54 ff ff ff 01 	movl   $0x1,-0xac(%rbp)
    133c:	00 00 00 
    133f:	c7 85 58 ff ff ff 01 	movl   $0x1,-0xa8(%rbp)
    1346:	00 00 00 
    1349:	c7 85 5c ff ff ff 01 	movl   $0x1,-0xa4(%rbp)
    1350:	00 00 00 
    1353:	c7 85 60 ff ff ff 01 	movl   $0x1,-0xa0(%rbp)
    135a:	00 00 00 
    135d:	c7 85 64 ff ff ff 01 	movl   $0x1,-0x9c(%rbp)
    1364:	00 00 00 
    1367:	c7 85 68 ff ff ff 01 	movl   $0x1,-0x98(%rbp)
    136e:	00 00 00 
    1371:	c7 85 6c ff ff ff 01 	movl   $0x1,-0x94(%rbp)
    1378:	00 00 00 
    137b:	c7 85 70 ff ff ff 02 	movl   $0x2,-0x90(%rbp)
    1382:	00 00 00 
    1385:	c7 85 74 ff ff ff 02 	movl   $0x2,-0x8c(%rbp)
    138c:	00 00 00 
    138f:	c7 85 78 ff ff ff 02 	movl   $0x2,-0x88(%rbp)
    1396:	00 00 00 
    1399:	c7 85 7c ff ff ff 02 	movl   $0x2,-0x84(%rbp)
    13a0:	00 00 00 
    13a3:	c7 45 80 02 00 00 00 	movl   $0x2,-0x80(%rbp)
    13aa:	c7 45 84 02 00 00 00 	movl   $0x2,-0x7c(%rbp)
    13b1:	c7 45 88 02 00 00 00 	movl   $0x2,-0x78(%rbp)
    13b8:	c7 45 8c 02 00 00 00 	movl   $0x2,-0x74(%rbp)
    13bf:	c7 45 90 02 00 00 00 	movl   $0x2,-0x70(%rbp)
    13c6:	c7 45 94 02 00 00 00 	movl   $0x2,-0x6c(%rbp)
    13cd:	c7 45 98 02 00 00 00 	movl   $0x2,-0x68(%rbp)
    13d4:	c7 45 9c 02 00 00 00 	movl   $0x2,-0x64(%rbp)
    13db:	c7 45 a0 02 00 00 00 	movl   $0x2,-0x60(%rbp)
    13e2:	c7 45 a4 02 00 00 00 	movl   $0x2,-0x5c(%rbp)
    13e9:	c7 45 a8 02 00 00 00 	movl   $0x2,-0x58(%rbp)
    13f0:	c7 45 ac 02 00 00 00 	movl   $0x2,-0x54(%rbp)
    13f7:	48 8d 55 b0          	lea    -0x50(%rbp),%rdx
    13fb:	48 8d b5 70 ff ff ff 	lea    -0x90(%rbp),%rsi
    1402:	48 8d 85 30 ff ff ff 	lea    -0xd0(%rbp),%rax
    1409:	b9 04 00 00 00       	mov    $0x4,%ecx
    140e:	48 89 c7             	mov    %rax,%rdi
    1411:	e8 d3 fd ff ff       	call   11e9 <_Z6matmulPA4_iS0_S0_i>
    1416:	c7 85 28 ff ff ff 00 	movl   $0x0,-0xd8(%rbp)
    141d:	00 00 00 
    1420:	eb 76                	jmp    1498 <main+0x1db>
    1422:	c7 85 2c ff ff ff 00 	movl   $0x0,-0xd4(%rbp)
    1429:	00 00 00 
    142c:	eb 41                	jmp    146f <main+0x1b2>
    142e:	8b 85 2c ff ff ff    	mov    -0xd4(%rbp),%eax
    1434:	48 63 d0             	movslq %eax,%rdx
    1437:	8b 85 28 ff ff ff    	mov    -0xd8(%rbp),%eax
    143d:	48 98                	cltq   
    143f:	48 c1 e0 02          	shl    $0x2,%rax
    1443:	48 01 d0             	add    %rdx,%rax
    1446:	8b 44 85 b0          	mov    -0x50(%rbp,%rax,4),%eax
    144a:	89 c6                	mov    %eax,%esi
    144c:	48 8d 05 ed 2b 00 00 	lea    0x2bed(%rip),%rax        # 4040 <_ZSt4cout@GLIBCXX_3.4>
    1453:	48 89 c7             	mov    %rax,%rdi
    1456:	e8 95 fc ff ff       	call   10f0 <_ZNSolsEi@plt>
    145b:	be 20 00 00 00       	mov    $0x20,%esi
    1460:	48 89 c7             	mov    %rax,%rdi
    1463:	e8 68 fc ff ff       	call   10d0 <_ZStlsISt11char_traitsIcEERSt13basic_ostreamIcT_ES5_c@plt>
    1468:	83 85 2c ff ff ff 01 	addl   $0x1,-0xd4(%rbp)
    146f:	83 bd 2c ff ff ff 03 	cmpl   $0x3,-0xd4(%rbp)
    1476:	7e b6                	jle    142e <main+0x171>
    1478:	48 8b 05 51 2b 00 00 	mov    0x2b51(%rip),%rax        # 3fd0 <_ZSt4endlIcSt11char_traitsIcEERSt13basic_ostreamIT_T0_ES6_@GLIBCXX_3.4>
    147f:	48 89 c6             	mov    %rax,%rsi
    1482:	48 8d 05 b7 2b 00 00 	lea    0x2bb7(%rip),%rax        # 4040 <_ZSt4cout@GLIBCXX_3.4>
    1489:	48 89 c7             	mov    %rax,%rdi
    148c:	e8 1f fc ff ff       	call   10b0 <_ZNSolsEPFRSoS_E@plt>
    1491:	83 85 28 ff ff ff 01 	addl   $0x1,-0xd8(%rbp)
    1498:	83 bd 28 ff ff ff 03 	cmpl   $0x3,-0xd8(%rbp)
    149f:	7e 81                	jle    1422 <main+0x165>
    14a1:	b8 00 00 00 00       	mov    $0x0,%eax
    14a6:	48 8b 55 f8          	mov    -0x8(%rbp),%rdx
    14aa:	64 48 2b 14 25 28 00 	sub    %fs:0x28,%rdx
    14b1:	00 00 
    14b3:	74 05                	je     14ba <main+0x1fd>
    14b5:	e8 06 fc ff ff       	call   10c0 <__stack_chk_fail@plt>
    14ba:	c9                   	leave  
    14bb:	c3                   	ret    

00000000000014bc <_Z41__static_initialization_and_destruction_0ii>:
    14bc:	f3 0f 1e fa          	endbr64 
    14c0:	55                   	push   %rbp
    14c1:	48 89 e5             	mov    %rsp,%rbp
    14c4:	48 83 ec 10          	sub    $0x10,%rsp
    14c8:	89 7d fc             	mov    %edi,-0x4(%rbp)
    14cb:	89 75 f8             	mov    %esi,-0x8(%rbp)
    14ce:	83 7d fc 01          	cmpl   $0x1,-0x4(%rbp)
    14d2:	75 3b                	jne    150f <_Z41__static_initialization_and_destruction_0ii+0x53>
    14d4:	81 7d f8 ff ff 00 00 	cmpl   $0xffff,-0x8(%rbp)
    14db:	75 32                	jne    150f <_Z41__static_initialization_and_destruction_0ii+0x53>
    14dd:	48 8d 05 6d 2c 00 00 	lea    0x2c6d(%rip),%rax        # 4151 <_ZStL8__ioinit>
    14e4:	48 89 c7             	mov    %rax,%rdi
    14e7:	e8 f4 fb ff ff       	call   10e0 <_ZNSt8ios_base4InitC1Ev@plt>
    14ec:	48 8d 05 15 2b 00 00 	lea    0x2b15(%rip),%rax        # 4008 <__dso_handle>
    14f3:	48 89 c2             	mov    %rax,%rdx
    14f6:	48 8d 05 54 2c 00 00 	lea    0x2c54(%rip),%rax        # 4151 <_ZStL8__ioinit>
    14fd:	48 89 c6             	mov    %rax,%rsi
    1500:	48 8b 05 f1 2a 00 00 	mov    0x2af1(%rip),%rax        # 3ff8 <_ZNSt8ios_base4InitD1Ev@GLIBCXX_3.4>
    1507:	48 89 c7             	mov    %rax,%rdi
    150a:	e8 91 fb ff ff       	call   10a0 <__cxa_atexit@plt>
    150f:	90                   	nop
    1510:	c9                   	leave  
    1511:	c3                   	ret    

0000000000001512 <_GLOBAL__sub_I__Z6matmulPA4_iS0_S0_i>:
    1512:	f3 0f 1e fa          	endbr64 
    1516:	55                   	push   %rbp
    1517:	48 89 e5             	mov    %rsp,%rbp
    151a:	be ff ff 00 00       	mov    $0xffff,%esi
    151f:	bf 01 00 00 00       	mov    $0x1,%edi
    1524:	e8 93 ff ff ff       	call   14bc <_Z41__static_initialization_and_destruction_0ii>
    1529:	5d                   	pop    %rbp
    152a:	c3                   	ret    

Disassembly of section .fini:

000000000000152c <_fini>:
    152c:	f3 0f 1e fa          	endbr64 
    1530:	48 83 ec 08          	sub    $0x8,%rsp
    1534:	48 83 c4 08          	add    $0x8,%rsp
    1538:	c3                   	ret    
